; Function Attrs: mustprogress nofree norecurse nosync nounwind memory(readwrite, inaccessiblemem: none) uwtable
define void @_ZN6colvar7inertia14calc_gradientsEv(ptr noundef nonnull readonly align 8 captures(none) dereferenceable(1616) %0) unnamed_addr #8 align 2 {
  %2 = getelementptr inbounds nuw i8, ptr %0, i64 1608
  %3 = load ptr, ptr %2, align 8, !tbaa !324
  %4 = getelementptr inbounds nuw i8, ptr %3, i64 504
  %5 = load ptr, ptr %4, align 8, !tbaa !249
  %6 = getelementptr inbounds nuw i8, ptr %3, i64 512
  %7 = load ptr, ptr %6, align 8, !tbaa !249
  %.not6 = icmp eq ptr %5, %7
  br i1 %.not6, label %._crit_edge, label %.lr.ph

._crit_edge:                                      ; preds = %.lr.ph, %1
  ret void

.lr.ph:                                           ; preds = %1, %.lr.ph
  %.sroa.02.07 = phi ptr [ %18, %.lr.ph ], [ %5, %1 ]
  %8 = getelementptr inbounds nuw i8, ptr %.sroa.02.07, i64 24
  %9 = load double, ptr %8, align 8, !tbaa !95, !noalias !345
  %10 = fmul double %9, 2.000000e+00
  %11 = getelementptr inbounds nuw i8, ptr %.sroa.02.07, i64 32
  %12 = load double, ptr %11, align 8, !tbaa !96, !noalias !345
  %13 = fmul double %12, 2.000000e+00
  %14 = getelementptr inbounds nuw i8, ptr %.sroa.02.07, i64 40
  %15 = load double, ptr %14, align 8, !tbaa !97, !noalias !345
  %16 = fmul double %15, 2.000000e+00
  %17 = getelementptr inbounds nuw i8, ptr %.sroa.02.07, i64 96
  store double %10, ptr %17, align 8, !tbaa !93
  %.sroa.4.0..sroa_idx = getelementptr inbounds nuw i8, ptr %.sroa.02.07, i64 104
  store double %13, ptr %.sroa.4.0..sroa_idx, align 8, !tbaa !93
  %.sroa.5.0..sroa_idx = getelementptr inbounds nuw i8, ptr %.sroa.02.07, i64 112
  store double %16, ptr %.sroa.5.0..sroa_idx, align 8, !tbaa !93
  %18 = getelementptr inbounds nuw i8, ptr %.sroa.02.07, i64 120
  %.not = icmp eq ptr %18, %7
  br i1 %.not, label %._crit_edge, label %.lr.ph, !llvm.loop !348
}